target datalayout = "e-m:e-p270:32:32-p271:32:32-p272:64:64-i64:64-i128:128-f80:128-n8:16:32:64-S128"
target triple = "x86_64-pc-linux-gnu"

%struct.Gia_Man_t_ = type { ptr, ptr, i32, i32, i32, i32, ptr, ptr, i32, i32, i32, ptr, ptr, %struct.Vec_Int_t_, %struct.Vec_Int_t_, i32, i32, i32, %struct.Vec_Int_t_, ptr, ptr, ptr, i32, i32, i32, i32, ptr, ptr, ptr, ptr, ptr, i32, i32, ptr, i32, ptr, ptr, ptr, ptr, ptr, ptr, ptr, ptr, ptr, ptr, ptr, ptr, ptr, ptr, ptr, ptr, ptr, ptr, %struct.Vec_Int_t_, %struct.Vec_Int_t_, ptr, ptr, ptr, ptr, ptr, ptr, ptr, ptr, ptr, ptr, ptr, ptr, ptr, ptr, ptr, ptr, ptr, ptr, ptr, ptr, ptr, i32, float, float, ptr, ptr, i32, ptr, ptr, ptr, ptr, ptr, ptr, ptr, ptr, ptr, ptr, ptr, ptr, ptr, ptr, ptr, i64, i64, ptr, ptr, i32, i32, i32, i32, i32, i32, i32, i32, i32, i32, i32, i32, ptr, ptr, ptr, ptr, ptr, ptr, ptr, ptr, i32, i32, i32, ptr, i32, i32, ptr, ptr, ptr, ptr, ptr, ptr, i32, i32, ptr, %struct.Vec_Int_t_, %struct.Vec_Int_t_, %struct.Vec_Int_t_, ptr, ptr, ptr, i32, i32, i32, i32, ptr, ptr, ptr, ptr, ptr }
%struct.Vec_Int_t_ = type { i32, i32, ptr }
%struct.Vec_Ptr_t_ = type { i32, i32, ptr }
%struct.Vec_Wec_t_ = type { i32, i32, ptr }

; Function Attrs: inlinehint nounwind uwtable
define internal void @Vec_PtrGrow(ptr noundef %0, i32 noundef %1) #3 {
  %3 = alloca ptr, align 8
  %4 = alloca i32, align 4
  store ptr %0, ptr %3, align 8, !tbaa !35
  store i32 %1, ptr %4, align 4, !tbaa !10
  %5 = load ptr, ptr %3, align 8, !tbaa !35
  %6 = getelementptr inbounds nuw %struct.Vec_Ptr_t_, ptr %5, i32 0, i32 0
  %7 = load i32, ptr %6, align 8, !tbaa !57
  %8 = load i32, ptr %4, align 4, !tbaa !10
  %9 = icmp sge i32 %7, %8
  br i1 %9, label %10, label %11

10:                                               ; preds = %2
  br label %36

11:                                               ; preds = %2
  %12 = load ptr, ptr %3, align 8, !tbaa !35
  %13 = getelementptr inbounds nuw %struct.Vec_Ptr_t_, ptr %12, i32 0, i32 2
  %14 = load ptr, ptr %13, align 8, !tbaa !45
  %15 = icmp ne ptr %14, null
  br i1 %15, label %16, label %24

16:                                               ; preds = %11
  %17 = load ptr, ptr %3, align 8, !tbaa !35
  %18 = getelementptr inbounds nuw %struct.Vec_Ptr_t_, ptr %17, i32 0, i32 2
  %19 = load ptr, ptr %18, align 8, !tbaa !45
  %20 = load i32, ptr %4, align 4, !tbaa !10
  %21 = sext i32 %20 to i64
  %22 = mul i64 8, %21
  %23 = call ptr @realloc(ptr noundef %19, i64 noundef %22) #16
  br label %29

24:                                               ; preds = %11
  %25 = load i32, ptr %4, align 4, !tbaa !10
  %26 = sext i32 %25 to i64
  %27 = mul i64 8, %26
  %28 = call noalias ptr @malloc(i64 noundef %27) #14
  br label %29

29:                                               ; preds = %24, %16
  %30 = phi ptr [ %23, %16 ], [ %28, %24 ]
  %31 = load ptr, ptr %3, align 8, !tbaa !35
  %32 = getelementptr inbounds nuw %struct.Vec_Ptr_t_, ptr %31, i32 0, i32 2
  store ptr %30, ptr %32, align 8, !tbaa !45
  %33 = load i32, ptr %4, align 4, !tbaa !10
  %34 = load ptr, ptr %3, align 8, !tbaa !35
  %35 = getelementptr inbounds nuw %struct.Vec_Ptr_t_, ptr %34, i32 0, i32 0
  store i32 %33, ptr %35, align 8, !tbaa !57
  br label %36

36:                                               ; preds = %29, %10
  ret void
}

; Function Attrs: inlinehint nounwind uwtable
define internal void @Gia_ObjSetTravIdCurrentId(ptr noundef %0, i32 noundef %1) #3 {
  %3 = alloca ptr, align 8
  %4 = alloca i32, align 4
  store ptr %0, ptr %3, align 8, !tbaa !3
  store i32 %1, ptr %4, align 4, !tbaa !10
  %5 = load ptr, ptr %3, align 8, !tbaa !3
  %6 = getelementptr inbounds nuw %struct.Gia_Man_t_, ptr %5, i32 0, i32 24
  %7 = load i32, ptr %6, align 8, !tbaa !69
  %8 = load ptr, ptr %3, align 8, !tbaa !3
  %9 = getelementptr inbounds nuw %struct.Gia_Man_t_, ptr %8, i32 0, i32 80
  %10 = load ptr, ptr %9, align 8, !tbaa !70
  %11 = load i32, ptr %4, align 4, !tbaa !10
  %12 = sext i32 %11 to i64
  %13 = getelementptr inbounds i32, ptr %10, i64 %12
  store i32 %7, ptr %13, align 4, !tbaa !10
  ret void
}

; Function Attrs: inlinehint nounwind uwtable
define internal i32 @Vec_IntEntry(ptr noundef %0, i32 noundef %1) #3 {
  %3 = alloca ptr, align 8
  %4 = alloca i32, align 4
  store ptr %0, ptr %3, align 8, !tbaa !36
  store i32 %1, ptr %4, align 4, !tbaa !10
  %5 = load ptr, ptr %3, align 8, !tbaa !36
  %6 = getelementptr inbounds nuw %struct.Vec_Int_t_, ptr %5, i32 0, i32 2
  %7 = load ptr, ptr %6, align 8, !tbaa !42
  %8 = load i32, ptr %4, align 4, !tbaa !10
  %9 = sext i32 %8 to i64
  %10 = getelementptr inbounds i32, ptr %7, i64 %9
  %11 = load i32, ptr %10, align 4, !tbaa !10
  ret i32 %11
}

; Function Attrs: inlinehint nounwind uwtable
define internal i32 @Vec_IntSize(ptr noundef %0) #3 {
  %2 = alloca ptr, align 8
  store ptr %0, ptr %2, align 8, !tbaa !36
  %3 = load ptr, ptr %2, align 8, !tbaa !36
  %4 = getelementptr inbounds nuw %struct.Vec_Int_t_, ptr %3, i32 0, i32 1
  %5 = load i32, ptr %4, align 4, !tbaa !40
  ret i32 %5
}

; Function Attrs: inlinehint nounwind uwtable
define internal void @Vec_IntClear(ptr noundef %0) #3 {
  %2 = alloca ptr, align 8
  store ptr %0, ptr %2, align 8, !tbaa !36
  %3 = load ptr, ptr %2, align 8, !tbaa !36
  %4 = getelementptr inbounds nuw %struct.Vec_Int_t_, ptr %3, i32 0, i32 1
  store i32 0, ptr %4, align 4, !tbaa !40
  ret void
}

; Function Attrs: inlinehint nounwind uwtable
define internal i32 @Gia_ManHasMapping(ptr noundef %0) #3 {
  %2 = alloca ptr, align 8
  store ptr %0, ptr %2, align 8, !tbaa !3
  %3 = load ptr, ptr %2, align 8, !tbaa !3
  %4 = getelementptr inbounds nuw %struct.Gia_Man_t_, ptr %3, i32 0, i32 37
  %5 = load ptr, ptr %4, align 8, !tbaa !58
  %6 = icmp ne ptr %5, null
  %7 = zext i1 %6 to i32
  ret i32 %7
}

; Function Attrs: inlinehint nounwind uwtable
define internal void @Vec_PtrPush(ptr noundef %0, ptr noundef %1) #3 {
  %3 = alloca ptr, align 8
  %4 = alloca ptr, align 8
  store ptr %0, ptr %3, align 8, !tbaa !35
  store ptr %1, ptr %4, align 8, !tbaa !46
  %5 = load ptr, ptr %3, align 8, !tbaa !35
  %6 = getelementptr inbounds nuw %struct.Vec_Ptr_t_, ptr %5, i32 0, i32 1
  %7 = load i32, ptr %6, align 4, !tbaa !43
  %8 = load ptr, ptr %3, align 8, !tbaa !35
  %9 = getelementptr inbounds nuw %struct.Vec_Ptr_t_, ptr %8, i32 0, i32 0
  %10 = load i32, ptr %9, align 8, !tbaa !57
  %11 = icmp eq i32 %7, %10
  br i1 %11, label %12, label %26

12:                                               ; preds = %2
  %13 = load ptr, ptr %3, align 8, !tbaa !35
  %14 = getelementptr inbounds nuw %struct.Vec_Ptr_t_, ptr %13, i32 0, i32 0
  %15 = load i32, ptr %14, align 8, !tbaa !57
  %16 = icmp slt i32 %15, 16
  br i1 %16, label %17, label %19

17:                                               ; preds = %12
  %18 = load ptr, ptr %3, align 8, !tbaa !35
  call void @Vec_PtrGrow(ptr noundef %18, i32 noundef 16)
  br label %25

19:                                               ; preds = %12
  %20 = load ptr, ptr %3, align 8, !tbaa !35
  %21 = load ptr, ptr %3, align 8, !tbaa !35
  %22 = getelementptr inbounds nuw %struct.Vec_Ptr_t_, ptr %21, i32 0, i32 0
  %23 = load i32, ptr %22, align 8, !tbaa !57
  %24 = mul nsw i32 2, %23
  call void @Vec_PtrGrow(ptr noundef %20, i32 noundef %24)
  br label %25

25:                                               ; preds = %19, %17
  br label %26

26:                                               ; preds = %25, %2
  %27 = load ptr, ptr %4, align 8, !tbaa !46
  %28 = load ptr, ptr %3, align 8, !tbaa !35
  %29 = getelementptr inbounds nuw %struct.Vec_Ptr_t_, ptr %28, i32 0, i32 2
  %30 = load ptr, ptr %29, align 8, !tbaa !45
  %31 = load ptr, ptr %3, align 8, !tbaa !35
  %32 = getelementptr inbounds nuw %struct.Vec_Ptr_t_, ptr %31, i32 0, i32 1
  %33 = load i32, ptr %32, align 4, !tbaa !43
  %34 = add nsw i32 %33, 1
  store i32 %34, ptr %32, align 4, !tbaa !43
  %35 = sext i32 %33 to i64
  %36 = getelementptr inbounds ptr, ptr %30, i64 %35
  store ptr %27, ptr %36, align 8, !tbaa !46
  ret void
}

; Function Attrs: nounwind uwtable
define void @Gia_ManCollectNodes(ptr noundef %0, ptr noundef %1, ptr noundef %2, ptr noundef %3) #0 {
  %5 = alloca ptr, align 8
  %6 = alloca ptr, align 8
  %7 = alloca ptr, align 8
  %8 = alloca ptr, align 8
  %9 = alloca i32, align 4
  %10 = alloca i32, align 4
  %11 = alloca i32, align 4
  store ptr %0, ptr %5, align 8, !tbaa !3
  store ptr %1, ptr %6, align 8, !tbaa !36
  store ptr %2, ptr %7, align 8, !tbaa !36
  store ptr %3, ptr %8, align 8, !tbaa !36
  call void @llvm.lifetime.start.p0(i64 4, ptr %9) #12
  call void @llvm.lifetime.start.p0(i64 4, ptr %10) #12
  %12 = load ptr, ptr %5, align 8, !tbaa !3
  %13 = call i32 @Gia_ManHasMapping(ptr noundef %12)
  %14 = icmp ne i32 %13, 0
  br i1 %14, label %16, label %15

15:                                               ; preds = %4
  store i32 1, ptr %11, align 4
  br label %56

16:                                               ; preds = %4
  %17 = load ptr, ptr %7, align 8, !tbaa !36
  call void @Vec_IntClear(ptr noundef %17)
  %18 = load ptr, ptr %5, align 8, !tbaa !3
  call void @Gia_ManIncrementTravId(ptr noundef %18)
  store i32 0, ptr %9, align 4, !tbaa !10
  br label %19

19:                                               ; preds = %33, %16
  %20 = load i32, ptr %9, align 4, !tbaa !10
  %21 = load ptr, ptr %6, align 8, !tbaa !36
  %22 = call i32 @Vec_IntSize(ptr noundef %21)
  %23 = icmp slt i32 %20, %22
  br i1 %23, label %24, label %28

24:                                               ; preds = %19
  %25 = load ptr, ptr %6, align 8, !tbaa !36
  %26 = load i32, ptr %9, align 4, !tbaa !10
  %27 = call i32 @Vec_IntEntry(ptr noundef %25, i32 noundef %26)
  store i32 %27, ptr %10, align 4, !tbaa !10
  br label %28

28:                                               ; preds = %24, %19
  %29 = phi i1 [ false, %19 ], [ true, %24 ]
  br i1 %29, label %30, label %36

30:                                               ; preds = %28
  %31 = load ptr, ptr %5, align 8, !tbaa !3
  %32 = load i32, ptr %10, align 4, !tbaa !10
  call void @Gia_ObjSetTravIdCurrentId(ptr noundef %31, i32 noundef %32)
  br label %33

33:                                               ; preds = %30
  %34 = load i32, ptr %9, align 4, !tbaa !10
  %35 = add nsw i32 %34, 1
  store i32 %35, ptr %9, align 4, !tbaa !10
  br label %19, !llvm.loop !67

36:                                               ; preds = %28
  store i32 0, ptr %9, align 4, !tbaa !10
  br label %37

37:                                               ; preds = %52, %36
  %38 = load i32, ptr %9, align 4, !tbaa !10
  %39 = load ptr, ptr %8, align 8, !tbaa !36
  %40 = call i32 @Vec_IntSize(ptr noundef %39)
  %41 = icmp slt i32 %38, %40
  br i1 %41, label %42, label %46

42:                                               ; preds = %37
  %43 = load ptr, ptr %8, align 8, !tbaa !36
  %44 = load i32, ptr %9, align 4, !tbaa !10
  %45 = call i32 @Vec_IntEntry(ptr noundef %43, i32 noundef %44)
  store i32 %45, ptr %10, align 4, !tbaa !10
  br label %46

46:                                               ; preds = %42, %37
  %47 = phi i1 [ false, %37 ], [ true, %42 ]
  br i1 %47, label %48, label %55

48:                                               ; preds = %46
  %49 = load ptr, ptr %5, align 8, !tbaa !3
  %50 = load i32, ptr %10, align 4, !tbaa !10
  %51 = load ptr, ptr %7, align 8, !tbaa !36
  call void @Gia_ManCollectNodes_rec(ptr noundef %49, i32 noundef %50, ptr noundef %51)
  br label %52

52:                                               ; preds = %48
  %53 = load i32, ptr %9, align 4, !tbaa !10
  %54 = add nsw i32 %53, 1
  store i32 %54, ptr %9, align 4, !tbaa !10
  br label %37, !llvm.loop !68

55:                                               ; preds = %46
  store i32 0, ptr %11, align 4
  br label %56

56:                                               ; preds = %55, %15
  call void @llvm.lifetime.end.p0(i64 4, ptr %10) #12
  call void @llvm.lifetime.end.p0(i64 4, ptr %9) #12
  %57 = load i32, ptr %11, align 4
  switch i32 %57, label %59 [
    i32 0, label %58
    i32 1, label %58
  ]

58:                                               ; preds = %56, %56
  ret void

59:                                               ; preds = %56
  unreachable
}

; Function Attrs: inlinehint nounwind uwtable
define internal ptr @Vec_WecEntry(ptr noundef %0, i32 noundef %1) #3 {
  %3 = alloca ptr, align 8
  %4 = alloca i32, align 4
  store ptr %0, ptr %3, align 8, !tbaa !81
  store i32 %1, ptr %4, align 4, !tbaa !10
  %5 = load ptr, ptr %3, align 8, !tbaa !81
  %6 = getelementptr inbounds nuw %struct.Vec_Wec_t_, ptr %5, i32 0, i32 2
  %7 = load ptr, ptr %6, align 8, !tbaa !85
  %8 = load i32, ptr %4, align 4, !tbaa !10
  %9 = sext i32 %8 to i64
  %10 = getelementptr inbounds %struct.Vec_Int_t_, ptr %7, i64 %9
  ret ptr %10
}

; Function Attrs: inlinehint nounwind uwtable
define internal ptr @Vec_PtrAlloc(i32 noundef %0) #3 {
  %2 = alloca i32, align 4
  %3 = alloca ptr, align 8
  store i32 %0, ptr %2, align 4, !tbaa !10
  call void @llvm.lifetime.start.p0(i64 8, ptr %3) #12
  %4 = call noalias ptr @malloc(i64 noundef 16) #14
  store ptr %4, ptr %3, align 8, !tbaa !35
  %5 = load i32, ptr %2, align 4, !tbaa !10
  %6 = icmp sgt i32 %5, 0
  br i1 %6, label %7, label %11

7:                                                ; preds = %1
  %8 = load i32, ptr %2, align 4, !tbaa !10
  %9 = icmp slt i32 %8, 8
  br i1 %9, label %10, label %11

10:                                               ; preds = %7
  store i32 8, ptr %2, align 4, !tbaa !10
  br label %11

11:                                               ; preds = %10, %7, %1
  %12 = load ptr, ptr %3, align 8, !tbaa !35
  %13 = getelementptr inbounds nuw %struct.Vec_Ptr_t_, ptr %12, i32 0, i32 1
  store i32 0, ptr %13, align 4, !tbaa !43
  %14 = load i32, ptr %2, align 4, !tbaa !10
  %15 = load ptr, ptr %3, align 8, !tbaa !35
  %16 = getelementptr inbounds nuw %struct.Vec_Ptr_t_, ptr %15, i32 0, i32 0
  store i32 %14, ptr %16, align 8, !tbaa !57
  %17 = load ptr, ptr %3, align 8, !tbaa !35
  %18 = getelementptr inbounds nuw %struct.Vec_Ptr_t_, ptr %17, i32 0, i32 0
  %19 = load i32, ptr %18, align 8, !tbaa !57
  %20 = icmp ne i32 %19, 0
  br i1 %20, label %21, label %28

21:                                               ; preds = %11
  %22 = load ptr, ptr %3, align 8, !tbaa !35
  %23 = getelementptr inbounds nuw %struct.Vec_Ptr_t_, ptr %22, i32 0, i32 0
  %24 = load i32, ptr %23, align 8, !tbaa !57
  %25 = sext i32 %24 to i64
  %26 = mul i64 8, %25
  %27 = call noalias ptr @malloc(i64 noundef %26) #14
  br label %29

28:                                               ; preds = %11
  br label %29

29:                                               ; preds = %28, %21
  %30 = phi ptr [ %27, %21 ], [ null, %28 ]
  %31 = load ptr, ptr %3, align 8, !tbaa !35
  %32 = getelementptr inbounds nuw %struct.Vec_Ptr_t_, ptr %31, i32 0, i32 2
  store ptr %30, ptr %32, align 8, !tbaa !45
  %33 = load ptr, ptr %3, align 8, !tbaa !35
  call void @llvm.lifetime.end.p0(i64 8, ptr %3) #12
  ret ptr %33
}

; Function Attrs: inlinehint nounwind uwtable
define internal i32 @Vec_WecSize(ptr noundef %0) #3 {
  %2 = alloca ptr, align 8
  store ptr %0, ptr %2, align 8, !tbaa !81
  %3 = load ptr, ptr %2, align 8, !tbaa !81
  %4 = getelementptr inbounds nuw %struct.Vec_Wec_t_, ptr %3, i32 0, i32 1
  %5 = load i32, ptr %4, align 4, !tbaa !83
  ret i32 %5
}

; Function Attrs: nounwind uwtable
define ptr @Gia_ManDupDivide(ptr noundef %0, ptr noundef %1, ptr noundef %2, ptr noundef %3, ptr noundef %4, i32 noundef %5, i32 noundef %6) #0 {
  %8 = alloca ptr, align 8
  %9 = alloca ptr, align 8
  %10 = alloca ptr, align 8
  %11 = alloca ptr, align 8
  %12 = alloca ptr, align 8
  %13 = alloca i32, align 4
  %14 = alloca i32, align 4
  %15 = alloca ptr, align 8
  %16 = alloca i32, align 4
  store ptr %0, ptr %8, align 8, !tbaa !3
  store ptr %1, ptr %9, align 8, !tbaa !81
  store ptr %2, ptr %10, align 8, !tbaa !81
  store ptr %3, ptr %11, align 8, !tbaa !81
  store ptr %4, ptr %12, align 8, !tbaa !8
  store i32 %5, ptr %13, align 4, !tbaa !10
  store i32 %6, ptr %14, align 4, !tbaa !10
  call void @llvm.lifetime.start.p0(i64 8, ptr %15) #12
  %17 = load ptr, ptr %9, align 8, !tbaa !81
  %18 = call i32 @Vec_WecSize(ptr noundef %17)
  %19 = call ptr @Vec_PtrAlloc(i32 noundef %18)
  store ptr %19, ptr %15, align 8, !tbaa !35
  call void @llvm.lifetime.start.p0(i64 4, ptr %16) #12
  store i32 0, ptr %16, align 4, !tbaa !10
  br label %20

20:                                               ; preds = %48, %7
  %21 = load i32, ptr %16, align 4, !tbaa !10
  %22 = load ptr, ptr %9, align 8, !tbaa !81
  %23 = call i32 @Vec_WecSize(ptr noundef %22)
  %24 = icmp slt i32 %21, %23
  br i1 %24, label %25, label %51

25:                                               ; preds = %20
  %26 = load ptr, ptr %8, align 8, !tbaa !3
  %27 = load ptr, ptr %9, align 8, !tbaa !81
  %28 = load i32, ptr %16, align 4, !tbaa !10
  %29 = call ptr @Vec_WecEntry(ptr noundef %27, i32 noundef %28)
  %30 = load ptr, ptr %10, align 8, !tbaa !81
  %31 = load i32, ptr %16, align 4, !tbaa !10
  %32 = call ptr @Vec_WecEntry(ptr noundef %30, i32 noundef %31)
  %33 = load ptr, ptr %11, align 8, !tbaa !81
  %34 = load i32, ptr %16, align 4, !tbaa !10
  %35 = call ptr @Vec_WecEntry(ptr noundef %33, i32 noundef %34)
  call void @Gia_ManCollectNodes(ptr noundef %26, ptr noundef %29, ptr noundef %32, ptr noundef %35)
  %36 = load ptr, ptr %15, align 8, !tbaa !35
  %37 = load ptr, ptr %8, align 8, !tbaa !3
  %38 = load ptr, ptr %9, align 8, !tbaa !81
  %39 = load i32, ptr %16, align 4, !tbaa !10
  %40 = call ptr @Vec_WecEntry(ptr noundef %38, i32 noundef %39)
  %41 = load ptr, ptr %10, align 8, !tbaa !81
  %42 = load i32, ptr %16, align 4, !tbaa !10
  %43 = call ptr @Vec_WecEntry(ptr noundef %41, i32 noundef %42)
  %44 = load ptr, ptr %11, align 8, !tbaa !81
  %45 = load i32, ptr %16, align 4, !tbaa !10
  %46 = call ptr @Vec_WecEntry(ptr noundef %44, i32 noundef %45)
  %47 = call ptr @Gia_ManDupDivideOne(ptr noundef %37, ptr noundef %40, ptr noundef %43, ptr noundef %46)
  call void @Vec_PtrPush(ptr noundef %36, ptr noundef %47)
  br label %48

48:                                               ; preds = %25
  %49 = load i32, ptr %16, align 4, !tbaa !10
  %50 = add nsw i32 %49, 1
  store i32 %50, ptr %16, align 4, !tbaa !10
  br label %20, !llvm.loop !82

51:                                               ; preds = %20
  %52 = load ptr, ptr %15, align 8, !tbaa !35
  %53 = load ptr, ptr %12, align 8, !tbaa !8
  %54 = load i32, ptr %13, align 4, !tbaa !10
  %55 = load i32, ptr %14, align 4, !tbaa !10
  call void @Gia_StochProcess(ptr noundef %52, ptr noundef %53, i32 noundef %54, i32 noundef %55, i32 noundef 0)
  %56 = load ptr, ptr %15, align 8, !tbaa !35
  call void @llvm.lifetime.end.p0(i64 4, ptr %16) #12
  call void @llvm.lifetime.end.p0(i64 8, ptr %15) #12
  ret ptr %56
}