; Function Attrs: nounwind uwtable
define noalias noundef ptr @Gia_ManDupDivide(ptr noundef %0, ptr noundef readonly captures(none) %1, ptr noundef readonly captures(none) %2, ptr noundef readonly captures(none) %3, ptr noundef %4, i32 noundef %5, i32 noundef %6) local_unnamed_addr #0 {
  %8 = getelementptr i8, ptr %1, i64 4
  %.val = load i32, ptr %8, align 4, !tbaa !77
  %9 = tail call noalias dereferenceable_or_null(16) ptr @malloc(i64 noundef 16) #20
  %10 = add i32 %.val, -1
  %or.cond.i = icmp ult i32 %10, 7
  %spec.store.select.i = select i1 %or.cond.i, i32 8, i32 %.val
  %11 = getelementptr inbounds nuw i8, ptr %9, i64 4
  store i32 0, ptr %11, align 4, !tbaa !37
  store i32 %spec.store.select.i, ptr %9, align 8, !tbaa !52
  %.not.i = icmp eq i32 %spec.store.select.i, 0
  br i1 %.not.i, label %Vec_PtrAlloc.exit, label %12

12:                                               ; preds = %7
  %13 = sext i32 %spec.store.select.i to i64
  %14 = shl nsw i64 %13, 3
  %15 = tail call noalias ptr @malloc(i64 noundef %14) #20
  br label %Vec_PtrAlloc.exit

Vec_PtrAlloc.exit:                                ; preds = %7, %12
  %16 = phi ptr [ %15, %12 ], [ null, %7 ]
  %17 = getelementptr inbounds nuw i8, ptr %9, i64 8
  store ptr %16, ptr %17, align 8, !tbaa !43
  %18 = icmp sgt i32 %.val, 0
  br i1 %18, label %.lr.ph, label %._crit_edge

.lr.ph:                                           ; preds = %Vec_PtrAlloc.exit
  %19 = getelementptr i8, ptr %1, i64 8
  %20 = getelementptr i8, ptr %2, i64 8
  %21 = getelementptr i8, ptr %3, i64 8
  %22 = getelementptr i8, ptr %0, i64 264
  %23 = getelementptr i8, ptr %0, i64 176
  %24 = getelementptr i8, ptr %0, i64 616
  br label %25

25:                                               ; preds = %.lr.ph, %Vec_PtrPush.exit
  %26 = phi i32 [ %spec.store.select.i, %.lr.ph ], [ %75, %Vec_PtrPush.exit ]
  %27 = phi i32 [ 0, %.lr.ph ], [ %77, %Vec_PtrPush.exit ]
  %indvars.iv = phi i64 [ 0, %.lr.ph ], [ %indvars.iv.next, %Vec_PtrPush.exit ]
  %.val24 = load ptr, ptr %19, align 8, !tbaa !79
  %28 = getelementptr inbounds nuw %struct.Vec_Int_t_, ptr %.val24, i64 %indvars.iv
  %.val25 = load ptr, ptr %20, align 8, !tbaa !79
  %29 = getelementptr inbounds nuw %struct.Vec_Int_t_, ptr %.val25, i64 %indvars.iv
  %.val26 = load ptr, ptr %21, align 8, !tbaa !79
  %30 = getelementptr inbounds nuw %struct.Vec_Int_t_, ptr %.val26, i64 %indvars.iv
  %.val22.i = load ptr, ptr %22, align 8, !tbaa !56
  %.not25.i = icmp eq ptr %.val22.i, null
  br i1 %.not25.i, label %Gia_ManCollectNodes.exit, label %31

31:                                               ; preds = %25
  %32 = getelementptr inbounds nuw i8, ptr %29, i64 4
  store i32 0, ptr %32, align 4, !tbaa !29
  tail call void @Gia_ManIncrementTravId(ptr noundef nonnull %0) #18
  %33 = getelementptr i8, ptr %28, i64 4
  %.val1926.i = load i32, ptr %33, align 4, !tbaa !29
  %34 = icmp sgt i32 %.val1926.i, 0
  br i1 %34, label %.lr.ph.i, label %.critedge.preheader.i

.lr.ph.i:                                         ; preds = %31
  %35 = getelementptr i8, ptr %28, i64 8
  %.val21.i = load ptr, ptr %35, align 8, !tbaa !40
  %.val24.i = load ptr, ptr %24, align 8, !tbaa !64
  %.val23.pre.i = load i32, ptr %23, align 8, !tbaa !63
  br label %39

.critedge.preheader.i:                            ; preds = %39, %31
  %36 = getelementptr i8, ptr %30, i64 4
  %.val28.i = load i32, ptr %36, align 4, !tbaa !29
  %37 = icmp sgt i32 %.val28.i, 0
  br i1 %37, label %.lr.ph30.i, label %Gia_ManCollectNodes.exit

.lr.ph30.i:                                       ; preds = %.critedge.preheader.i
  %38 = getelementptr i8, ptr %30, i64 8
  br label %.critedge.i

39:                                               ; preds = %39, %.lr.ph.i
  %indvars.iv.i = phi i64 [ 0, %.lr.ph.i ], [ %indvars.iv.next.i, %39 ]
  %40 = getelementptr inbounds nuw i32, ptr %.val21.i, i64 %indvars.iv.i
  %41 = load i32, ptr %40, align 4, !tbaa !31
  %42 = sext i32 %41 to i64
  %43 = getelementptr inbounds i32, ptr %.val24.i, i64 %42
  store i32 %.val23.pre.i, ptr %43, align 4, !tbaa !31
  %indvars.iv.next.i = add nuw nsw i64 %indvars.iv.i, 1
  %.val19.i = load i32, ptr %33, align 4, !tbaa !29
  %44 = sext i32 %.val19.i to i64
  %45 = icmp slt i64 %indvars.iv.next.i, %44
  br i1 %45, label %39, label %.critedge.preheader.i, !llvm.loop !65

.critedge.i:                                      ; preds = %.critedge.i, %.lr.ph30.i
  %indvars.iv32.i = phi i64 [ 0, %.lr.ph30.i ], [ %indvars.iv.next33.i, %.critedge.i ]
  %.val20.i = load ptr, ptr %38, align 8, !tbaa !40
  %46 = getelementptr inbounds nuw i32, ptr %.val20.i, i64 %indvars.iv32.i
  %47 = load i32, ptr %46, align 4, !tbaa !31
  tail call void @Gia_ManCollectNodes_rec(ptr noundef nonnull %0, i32 noundef %47, ptr noundef %29)
  %indvars.iv.next33.i = add nuw nsw i64 %indvars.iv32.i, 1
  %.val.i = load i32, ptr %36, align 4, !tbaa !29
  %48 = sext i32 %.val.i to i64
  %49 = icmp slt i64 %indvars.iv.next33.i, %48
  br i1 %49, label %.critedge.i, label %Gia_ManCollectNodes.exit, !llvm.loop !66

Gia_ManCollectNodes.exit:                         ; preds = %.critedge.i, %25, %.critedge.preheader.i
  %.val27 = load ptr, ptr %19, align 8, !tbaa !79
  %50 = getelementptr inbounds nuw %struct.Vec_Int_t_, ptr %.val27, i64 %indvars.iv
  %.val28 = load ptr, ptr %20, align 8, !tbaa !79
  %51 = getelementptr inbounds nuw %struct.Vec_Int_t_, ptr %.val28, i64 %indvars.iv
  %.val29 = load ptr, ptr %21, align 8, !tbaa !79
  %52 = getelementptr inbounds nuw %struct.Vec_Int_t_, ptr %.val29, i64 %indvars.iv
  %53 = tail call ptr @Gia_ManDupDivideOne(ptr noundef %0, ptr noundef %50, ptr noundef %51, ptr noundef %52)
  %54 = icmp eq i32 %27, %26
  br i1 %54, label %55, label %.Vec_PtrGrow.exit11_crit_edge.i

.Vec_PtrGrow.exit11_crit_edge.i:                  ; preds = %Gia_ManCollectNodes.exit
  %.pre.i = load ptr, ptr %17, align 8, !tbaa !43
  br label %Vec_PtrPush.exit

55:                                               ; preds = %Gia_ManCollectNodes.exit
  %56 = icmp slt i32 %26, 16
  br i1 %56, label %57, label %64

57:                                               ; preds = %55
  %58 = load ptr, ptr %17, align 8, !tbaa !43
  %.not9.i.i = icmp eq ptr %58, null
  br i1 %.not9.i.i, label %61, label %59

59:                                               ; preds = %57
  %60 = tail call dereferenceable_or_null(128) ptr @realloc(ptr noundef nonnull %58, i64 noundef 128) #21
  br label %Vec_PtrGrow.exit.i

61:                                               ; preds = %57
  %62 = tail call noalias dereferenceable_or_null(128) ptr @malloc(i64 noundef 128) #20
  br label %Vec_PtrGrow.exit.i

Vec_PtrGrow.exit.i:                               ; preds = %61, %59
  %63 = phi ptr [ %60, %59 ], [ %62, %61 ]
  store ptr %63, ptr %17, align 8, !tbaa !43
  store i32 16, ptr %9, align 8, !tbaa !52
  br label %Vec_PtrPush.exit

64:                                               ; preds = %55
  %65 = shl nuw nsw i32 %26, 1
  %66 = load ptr, ptr %17, align 8, !tbaa !43
  %.not9.i10.i = icmp eq ptr %66, null
  %67 = zext nneg i32 %65 to i64
  %68 = shl nuw nsw i64 %67, 3
  br i1 %.not9.i10.i, label %71, label %69

69:                                               ; preds = %64
  %70 = tail call ptr @realloc(ptr noundef nonnull %66, i64 noundef %68) #21
  br label %73

71:                                               ; preds = %64
  %72 = tail call noalias ptr @malloc(i64 noundef %68) #20
  br label %73

73:                                               ; preds = %71, %69
  %74 = phi ptr [ %70, %69 ], [ %72, %71 ]
  store ptr %74, ptr %17, align 8, !tbaa !43
  store i32 %65, ptr %9, align 8, !tbaa !52
  br label %Vec_PtrPush.exit

Vec_PtrPush.exit:                                 ; preds = %.Vec_PtrGrow.exit11_crit_edge.i, %Vec_PtrGrow.exit.i, %73
  %75 = phi i32 [ %26, %.Vec_PtrGrow.exit11_crit_edge.i ], [ %65, %73 ], [ 16, %Vec_PtrGrow.exit.i ]
  %76 = phi ptr [ %.pre.i, %.Vec_PtrGrow.exit11_crit_edge.i ], [ %74, %73 ], [ %63, %Vec_PtrGrow.exit.i ]
  %77 = add nuw nsw i32 %27, 1
  store i32 %77, ptr %11, align 4, !tbaa !37
  %78 = zext nneg i32 %27 to i64
  %79 = getelementptr inbounds nuw ptr, ptr %76, i64 %78
  store ptr %53, ptr %79, align 8, !tbaa !44
  %indvars.iv.next = add nuw nsw i64 %indvars.iv, 1
  %.val23 = load i32, ptr %8, align 4, !tbaa !77
  %80 = sext i32 %.val23 to i64
  %81 = icmp slt i64 %indvars.iv.next, %80
  br i1 %81, label %25, label %._crit_edge, !llvm.loop !80

._crit_edge:                                      ; preds = %Vec_PtrPush.exit, %Vec_PtrAlloc.exit
  tail call void @Gia_StochProcess(ptr noundef nonnull %9, ptr noundef %4, i32 noundef %5, i32 noundef %6, i32 noundef 0)
  ret ptr %9
}